target datalayout = "e-m:e-p270:32:32-p271:32:32-p272:64:64-i64:64-i128:128-f80:128-n8:16:32:64-S128"
target triple = "x86_64-pc-linux-gnu"

; Function Attrs: nounwind uwtable
define hidden i32 @sctpHandleSocketError(ptr noundef %0, i32 noundef %1) #0 {
  %3 = alloca ptr, align 8
  %4 = alloca i32, align 4
  store ptr %0, ptr %3, align 8
  store i32 %1, ptr %4, align 4
  %5 = load ptr, ptr %3, align 8
  %6 = load i32, ptr %4, align 4
  %7 = call i32 @sctpHandleSocketErrorWithMessage(ptr noundef %5, i32 noundef %6, ptr noundef null)
  ret i32 %7
}

; Function Attrs: nounwind uwtable
define void @Java_sun_nio_ch_sctp_SctpNet_listen0(ptr noundef %0, ptr noundef %1, i32 noundef %2, i32 noundef %3) #0 {
  %5 = alloca ptr, align 8
  %6 = alloca ptr, align 8
  %7 = alloca i32, align 4
  %8 = alloca i32, align 4
  store ptr %0, ptr %5, align 8
  store ptr %1, ptr %6, align 8
  store i32 %2, ptr %7, align 4
  store i32 %3, ptr %8, align 4
  %9 = load i32, ptr %7, align 4
  %10 = load i32, ptr %8, align 4
  %11 = call i32 @listen(i32 noundef %9, i32 noundef %10) #7
  %12 = icmp slt i32 %11, 0
  br i1 %12, label %13, label %18

13:                                               ; preds = %4
  %14 = load ptr, ptr %5, align 8
  %15 = call ptr @__errno_location() #6
  %16 = load i32, ptr %15, align 4
  %17 = call i32 @sctpHandleSocketError(ptr noundef %14, i32 noundef %16)
  br label %18

18:                                               ; preds = %13, %4
  ret void
}