; Function Attrs: nounwind uwtable
define void @Java_sun_nio_ch_sctp_SctpNet_listen0(ptr noundef %0, ptr nocapture noundef readnone %1, i32 noundef %2, i32 noundef %3) local_unnamed_addr #1 {
  %5 = tail call i32 @listen(i32 noundef %2, i32 noundef %3) #10
  %6 = icmp slt i32 %5, 0
  br i1 %6, label %7, label %11

7:                                                ; preds = %4
  %8 = tail call ptr @__errno_location() #9
  %9 = load i32, ptr %8, align 4
  %10 = tail call range(i32 -5, 1) i32 @sctpHandleSocketErrorWithMessage(ptr noundef %0, i32 noundef %9, ptr noundef null)
  br label %11

11:                                               ; preds = %7, %4
  ret void
}